; Function Attrs: nounwind uwtable
define void @EVP_PKEY_free(ptr noundef %0) local_unnamed_addr #0 {
  %2 = icmp eq ptr %0, null
  br i1 %2, label %14, label %3

3:                                                ; preds = %1
  %4 = getelementptr inbounds nuw i8, ptr %0, i64 48
  %5 = atomicrmw sub ptr %4, i32 1 release, align 4
  %6 = icmp eq i32 %5, 1
  br i1 %6, label %CRYPTO_DOWN_REF.exit.thread, label %CRYPTO_DOWN_REF.exit

CRYPTO_DOWN_REF.exit.thread:                      ; preds = %3
  fence acquire
  br label %8

CRYPTO_DOWN_REF.exit:                             ; preds = %3
  %7 = icmp sgt i32 %5, 1
  br i1 %7, label %14, label %8

8:                                                ; preds = %CRYPTO_DOWN_REF.exit.thread, %CRYPTO_DOWN_REF.exit
  tail call fastcc void @evp_pkey_free_it(ptr noundef %0)
  %9 = getelementptr inbounds nuw i8, ptr %0, i64 80
  tail call void @CRYPTO_free_ex_data(i32 noundef 17, ptr noundef nonnull %0, ptr noundef nonnull %9) #12
  %10 = getelementptr inbounds nuw i8, ptr %0, i64 56
  %11 = load ptr, ptr %10, align 8, !tbaa !36
  tail call void @CRYPTO_THREAD_lock_free(ptr noundef %11) #12
  %12 = getelementptr inbounds nuw i8, ptr %0, i64 64
  %13 = load ptr, ptr %12, align 8, !tbaa !37
  tail call void @OPENSSL_sk_pop_free(ptr noundef %13, ptr noundef nonnull @X509_ATTRIBUTE_free) #12
  tail call void @CRYPTO_free(ptr noundef nonnull %0, ptr noundef nonnull @.str, i32 noundef 1853) #12
  br label %14

14:                                               ; preds = %CRYPTO_DOWN_REF.exit, %1, %8
  ret void
}